(dp0
S'0831'
p1
I243
sS'0830'
p2
I242
sS'0428'
p3
I118
sS'0429'
p4
I119
sS'0426'
p5
I116
sS'0427'
p6
I117
sS'0424'
p7
I114
sS'0425'
p8
I115
sS'0422'
p9
I112
sS'0423'
p10
I113
sS'0420'
p11
I110
sS'0421'
p12
I111
sS'0721'
p13
I202
sS'0720'
p14
I201
sS'0723'
p15
I204
sS'0722'
p16
I203
sS'0725'
p17
I206
sS'0724'
p18
I205
sS'0727'
p19
I208
sS'0726'
p20
I207
sS'0729'
p21
I210
sS'0728'
p22
I209
sS'0330'
p23
I89
sS'0331'
p24
I90
sS'0112'
p25
I11
sS'0113'
p26
I12
sS'0110'
p27
I9
sS'0111'
p28
I10
sS'0116'
p29
I15
sS'0117'
p30
I16
sS'0114'
p31
I13
sS'0115'
p32
I14
sS'1120'
p33
I324
sS'1121'
p34
I325
sS'0118'
p35
I17
sS'0119'
p36
I18
sS'1124'
p37
I328
sS'1125'
p38
I329
sS'1126'
p39
I330
sS'1127'
p40
I331
sS'0206'
p41
I36
sS'0207'
p42
I37
sS'0204'
p43
I34
sS'0205'
p44
I35
sS'0619'
p45
I170
sS'0618'
p46
I169
sS'0201'
p47
I31
sS'1014'
p48
I287
sS'0614'
p49
I165
sS'1016'
p50
I289
sS'0616'
p51
I167
sS'0611'
p52
I162
sS'0610'
p53
I161
sS'0208'
p54
I38
sS'1013'
p55
I286
sS'0106'
p56
I5
sS'1230'
p57
I364
sS'1231'
p58
I365
sS'0930'
p59
I273
sS'0509'
p60
I129
sS'0508'
p61
I128
sS'0501'
p62
I121
sS'0503'
p63
I123
sS'0502'
p64
I122
sS'0505'
p65
I125
sS'0504'
p66
I124
sS'0507'
p67
I127
sS'0506'
p68
I126
sS'0808'
p69
I220
sS'0809'
p70
I221
sS'0804'
p71
I216
sS'0805'
p72
I217
sS'0806'
p73
I218
sS'0807'
p74
I219
sS'0801'
p75
I213
sS'0802'
p76
I214
sS'0803'
p77
I215
sS'0910'
p78
I253
sS'0718'
p79
I199
sS'0719'
p80
I200
sS'0710'
p81
I191
sS'0711'
p82
I192
sS'0712'
p83
I193
sS'0713'
p84
I194
sS'0714'
p85
I195
sS'0715'
p86
I196
sS'0716'
p87
I197
sS'0717'
p88
I198
sS'1009'
p89
I282
sS'1008'
p90
I281
sS'1007'
p91
I280
sS'0218'
p92
I48
sS'0624'
p93
I175
sS'0625'
p94
I176
sS'0626'
p95
I177
sS'0627'
p96
I178
sS'0620'
p97
I171
sS'0621'
p98
I172
sS'0622'
p99
I173
sS'0623'
p100
I174
sS'0628'
p101
I179
sS'0629'
p102
I180
sS'1226'
p103
I360
sS'1220'
p104
I354
sS'0530'
p105
I150
sS'0531'
p106
I151
sS'1018'
p107
I291
sS'0929'
p108
I272
sS'0928'
p109
I271
sS'0927'
p110
I270
sS'0430'
p111
I120
sS'0925'
p112
I268
sS'0924'
p113
I267
sS'0923'
p114
I266
sS'0922'
p115
I265
sS'0921'
p116
I264
sS'0920'
p117
I263
sS'1019'
p118
I292
sS'0325'
p119
I84
sS'0324'
p120
I83
sS'0327'
p121
I86
sS'0326'
p122
I85
sS'0321'
p123
I80
sS'0320'
p124
I79
sS'0323'
p125
I82
sS'0322'
p126
I81
sS'0329'
p127
I88
sS'0328'
p128
I87
sS'0109'
p129
I8
sS'0108'
p130
I7
sS'0105'
p131
I4
sS'0104'
p132
I3
sS'0107'
p133
I6
sS'1130'
p134
I334
sS'0101'
p135
I0
sS'0103'
p136
I2
sS'0102'
p137
I1
sS'0211'
p138
I41
sS'0210'
p139
I40
sS'0213'
p140
I43
sS'0212'
p141
I42
sS'0215'
p142
I45
sS'0214'
p143
I44
sS'0217'
p144
I47
sS'0216'
p145
I46
sS'0219'
p146
I49
sS'1006'
p147
I279
sS'1005'
p148
I278
sS'1004'
p149
I277
sS'1003'
p150
I276
sS'1002'
p151
I275
sS'1001'
p152
I274
sS'1227'
p153
I361
sS'1128'
p154
I332
sS'1225'
p155
I359
sS'1224'
p156
I358
sS'1223'
p157
I357
sS'1222'
p158
I356
sS'1221'
p159
I355
sS'1129'
p160
I333
sS'1229'
p161
I363
sS'1228'
p162
I362
sS'1122'
p163
I326
sS'1123'
p164
I327
sS'0411'
p165
I101
sS'0410'
p166
I100
sS'0416'
p167
I106
sS'0419'
p168
I109
sS'0418'
p169
I108
sS'1012'
p170
I285
sS'0401'
p171
I91
sS'0402'
p172
I92
sS'0403'
p173
I93
sS'0404'
p174
I94
sS'0405'
p175
I95
sS'0819'
p176
I231
sS'0818'
p177
I230
sS'0817'
p178
I229
sS'0816'
p179
I228
sS'0815'
p180
I227
sS'0814'
p181
I226
sS'0813'
p182
I225
sS'0812'
p183
I224
sS'0811'
p184
I223
sS'0810'
p185
I222
sS'0228'
p186
I58
sS'0229'
p187
I59
sS'0220'
p188
I50
sS'0221'
p189
I51
sS'0222'
p190
I52
sS'0223'
p191
I53
sS'0224'
p192
I54
sS'0918'
p193
I261
sS'0226'
p194
I56
sS'0227'
p195
I57
sS'0520'
p196
I140
sS'0926'
p197
I269
sS'0709'
p198
I190
sS'0708'
p199
I189
sS'0318'
p200
I77
sS'0319'
p201
I78
sS'0703'
p202
I184
sS'0702'
p203
I183
sS'0701'
p204
I182
sS'0317'
p205
I76
sS'0707'
p206
I188
sS'0706'
p207
I187
sS'0705'
p208
I186
sS'0704'
p209
I185
sS'0528'
p210
I148
sS'0130'
p211
I29
sS'0131'
p212
I30
sS'0630'
p213
I181
sS'0202'
p214
I32
sS'0203'
p215
I33
sS'0615'
p216
I166
sS'1015'
p217
I288
sS'0617'
p218
I168
sS'1017'
p219
I290
sS'1010'
p220
I283
sS'1011'
p221
I284
sS'0613'
p222
I164
sS'0209'
p223
I39
sS'0523'
p224
I143
sS'0522'
p225
I142
sS'0521'
p226
I141
sS'0919'
p227
I262
sS'0527'
p228
I147
sS'0526'
p229
I146
sS'0525'
p230
I145
sS'0524'
p231
I144
sS'0912'
p232
I255
sS'0913'
p233
I256
sS'0529'
p234
I149
sS'0911'
p235
I254
sS'0916'
p236
I259
sS'0917'
p237
I260
sS'0914'
p238
I257
sS'0915'
p239
I258
sS'1030'
p240
I303
sS'1031'
p241
I304
sS'1212'
p242
I346
sS'1213'
p243
I347
sS'1210'
p244
I344
sS'1211'
p245
I345
sS'1216'
p246
I350
sS'1217'
p247
I351
sS'1214'
p248
I348
sS'1215'
p249
I349
sS'1218'
p250
I352
sS'1219'
p251
I353
sS'1106'
p252
I310
sS'1107'
p253
I311
sS'1104'
p254
I308
sS'1105'
p255
I309
sS'1102'
p256
I306
sS'1103'
p257
I307
sS'1101'
p258
I305
sS'1108'
p259
I312
sS'1109'
p260
I313
sS'0612'
p261
I163
sS'0413'
p262
I103
sS'0412'
p263
I102
sS'0828'
p264
I240
sS'0829'
p265
I241
sS'0417'
p266
I107
sS'0406'
p267
I96
sS'0415'
p268
I105
sS'0414'
p269
I104
sS'0822'
p270
I234
sS'0823'
p271
I235
sS'0820'
p272
I232
sS'0821'
p273
I233
sS'0826'
p274
I238
sS'0827'
p275
I239
sS'0824'
p276
I236
sS'0825'
p277
I237
sS'0408'
p278
I98
sS'0409'
p279
I99
sS'0730'
p280
I211
sS'0731'
p281
I212
sS'0309'
p282
I68
sS'0308'
p283
I67
sS'0307'
p284
I66
sS'0306'
p285
I65
sS'0305'
p286
I64
sS'0304'
p287
I63
sS'0303'
p288
I62
sS'0302'
p289
I61
sS'0301'
p290
I60
sS'0127'
p291
I26
sS'0126'
p292
I25
sS'0125'
p293
I24
sS'0124'
p294
I23
sS'0123'
p295
I22
sS'0122'
p296
I21
sS'0121'
p297
I20
sS'0120'
p298
I19
sS'0129'
p299
I28
sS'0128'
p300
I27
sS'0602'
p301
I153
sS'0603'
p302
I154
sS'0601'
p303
I152
sS'0606'
p304
I157
sS'0607'
p305
I158
sS'0604'
p306
I155
sS'0605'
p307
I156
sS'0608'
p308
I159
sS'0609'
p309
I160
sS'0225'
p310
I55
sS'0905'
p311
I248
sS'0904'
p312
I247
sS'0907'
p313
I250
sS'0906'
p314
I249
sS'0901'
p315
I244
sS'0903'
p316
I246
sS'0902'
p317
I245
sS'0909'
p318
I252
sS'0908'
p319
I251
sS'0518'
p320
I138
sS'0519'
p321
I139
sS'0516'
p322
I136
sS'0517'
p323
I137
sS'0514'
p324
I134
sS'0515'
p325
I135
sS'0512'
p326
I132
sS'0513'
p327
I133
sS'0510'
p328
I130
sS'0511'
p329
I131
sS'0407'
p330
I97
sS'1025'
p331
I298
sS'1024'
p332
I297
sS'1027'
p333
I300
sS'1026'
p334
I299
sS'1021'
p335
I294
sS'1020'
p336
I293
sS'1023'
p337
I296
sS'1022'
p338
I295
sS'1029'
p339
I302
sS'1028'
p340
I301
sS'1209'
p341
I343
sS'1208'
p342
I342
sS'1205'
p343
I339
sS'1204'
p344
I338
sS'1207'
p345
I341
sS'1206'
p346
I340
sS'1201'
p347
I335
sS'1203'
p348
I337
sS'1202'
p349
I336
sS'1111'
p350
I315
sS'1110'
p351
I314
sS'1113'
p352
I317
sS'1112'
p353
I316
sS'1115'
p354
I319
sS'1114'
p355
I318
sS'1117'
p356
I321
sS'1116'
p357
I320
sS'1119'
p358
I323
sS'1118'
p359
I322
sS'0314'
p360
I73
sS'0315'
p361
I74
sS'0316'
p362
I75
sS'0310'
p363
I69
sS'0311'
p364
I70
sS'0312'
p365
I71
sS'0313'
p366
I72
s.