(lp0
(dp1
(I10
I1000
tp2
(F99.99319195747375
F118.25667905807495
tp3
s(I10
I100
tp4
(F60.27275109291077
F146.6279010772705
tp5
s(I10
I10
tp6
(F116.93724203109741
F95.01563906669617
tp7
s(I100
I10
tp8
(F154.35381507873535
F138.43825387954712
tp9
s(I10
I10000
tp10
(F71.09796094894409
F86.63670992851257
tp11
s(I100
I1000
tp12
(F168.36276292800903
F96.95619201660156
tp13
s(I100
I100
tp14
(F120.37945985794067
F79.76682901382446
tp15
s(I50
I100
tp16
(F149.49169898033142
F84.63594102859497
tp17
s(I100
I10000
tp18
(F100.70204901695251
F139.17292499542236
tp19
s(I20
I10
tp20
(F129.44192504882812
F107.77079510688782
tp21
s(I50
I10
tp22
(F76.13031792640686
F120.24258017539978
tp23
s(I20
I1000
tp24
(F72.3349199295044
F109.03656387329102
tp25
s(I50
I1000
tp26
(F105.17182278633118
F148.84849905967712
tp27
s(I50
I10000
tp28
(F96.55957102775574
F93.94636297225952
tp29
s(I20
I100
tp30
(F131.0492548942566
F84.73224210739136
tp31
s(I20
I10000
tp32
(F112.07461714744568
F133.04635095596313
tp33
sa(dp34
(I10
I1000
tp35
(F121.01463389396667
F163.34813809394836
tp36
s(I10
I100
tp37
(F119.35684084892273
F129.17820501327515
tp38
s(I10
I10
tp39
(F164.08051800727844
F144.13282179832458
tp40
s(I100
I10
tp41
(F116.94393396377563
F147.62229204177856
tp42
s(I10
I10000
tp43
(F118.23688387870789
F134.85081696510315
tp44
s(I100
I1000
tp45
(F114.02550411224365
F115.04479002952576
tp46
s(I100
I100
tp47
(F96.95215606689453
F98.87554383277893
tp48
s(I50
I100
tp49
(F161.33954691886902
F111.13041710853577
tp50
s(I100
I10000
tp51
(F124.28480100631714
F72.97901797294617
tp52
s(I20
I10
tp53
(F183.2397108078003
F137.01218605041504
tp54
s(I50
I10
tp55
(F188.1979739665985
F130.43882012367249
tp56
s(I20
I1000
tp57
(F158.56966018676758
F120.98472690582275
tp58
s(I50
I1000
tp59
(F73.13739395141602
F138.85203313827515
tp60
s(I50
I10000
tp61
(F99.63951802253723
F143.68444180488586
tp62
s(I20
I100
tp63
(F138.6393539905548
F135.59629201889038
tp64
s(I20
I10000
tp65
(F114.87893199920654
F128.3057780265808
tp66
sa(dp67
(I10
I1000
tp68
(F76.47196793556213
F168.4497950077057
tp69
s(I10
I100
tp70
(F113.5375280380249
F173.14339995384216
tp71
s(I10
I10
tp72
(F199.61856293678284
F109.56847214698792
tp73
s(I100
I10
tp74
(F112.95879983901978
F145.89057397842407
tp75
s(I10
I10000
tp76
(F106.93283605575562
F118.46587610244751
tp77
s(I100
I1000
tp78
(F136.14544105529785
F139.29668712615967
tp79
s(I100
I100
tp80
(F52.87797498703003
F134.7335069179535
tp81
s(I50
I100
tp82
(F96.8304660320282
F158.68333292007446
tp83
s(I100
I10000
tp84
(F99.36976790428162
F107.47668695449829
tp85
s(I20
I10
tp86
(F197.36053204536438
F123.56733298301697
tp87
s(I50
I10
tp88
(F178.45428013801575
F130.92645502090454
tp89
s(I20
I1000
tp90
(F104.30967378616333
F116.24684715270996
tp91
s(I50
I1000
tp92
(F95.06688904762268
F144.5745987892151
tp93
s(I50
I10000
tp94
(F46.83775210380554
F160.45176887512207
tp95
s(I20
I100
tp96
(F109.52674889564514
F187.6720790863037
tp97
s(I20
I10000
tp98
(F147.43049812316895
F93.04826998710632
tp99
sa(dp100
(I10
I1000
tp101
(F125.92819499969482
F176.61135005950928
tp102
s(I10
I100
tp103
(F124.24196314811707
F205.68547797203064
tp104
s(I10
I10
tp105
(F152.48224401474
F153.8584280014038
tp106
s(I100
I10
tp107
(F237.89390897750854
F66.5773389339447
tp108
s(I10
I10000
tp109
(F182.8979959487915
F164.9346959590912
tp110
s(I100
I1000
tp111
(F140.43525791168213
F150.5232150554657
tp112
s(I100
I100
tp113
(F190.12621688842773
F92.4277651309967
tp114
s(I50
I100
tp115
(F157.97447204589844
F96.14797401428223
tp116
s(I100
I10000
tp117
(F86.79293012619019
F148.06063294410706
tp118
s(I20
I10
tp119
(F182.04322504997253
F179.89091777801514
tp120
s(I50
I10
tp121
(F189.41667699813843
F124.9990348815918
tp122
s(I20
I1000
tp123
(F126.26033306121826
F144.0864279270172
tp124
s(I50
I1000
tp125
(F182.34696102142334
F74.39530515670776
tp126
s(I50
I10000
tp127
(F171.86682105064392
F70.21861410140991
tp128
s(I20
I100
tp129
(F31.260640859603882
F174.68378114700317
tp130
s(I20
I10000
tp131
(F138.04004096984863
F115.93172693252563
tp132
sa(dp133
(I10
I1000
tp134
(F87.96434807777405
F199.31061506271362
tp135
s(I10
I100
tp136
(F99.31487607955933
F195.62935209274292
tp137
s(I10
I10
tp138
(F140.57240796089172
F196.64356803894043
tp139
s(I100
I10
tp140
(F146.6898651123047
F143.96835088729858
tp141
s(I10
I10000
tp142
(F89.63626599311829
F198.16989398002625
tp143
s(I100
I1000
tp144
(F163.32526111602783
F92.13647699356079
tp145
s(I100
I100
tp146
(F133.04285407066345
F125.08125686645508
tp147
s(I50
I100
tp148
(F105.61260294914246
F160.83861112594604
tp149
s(I100
I10000
tp150
(F167.40223598480225
F71.73143482208252
tp151
s(I20
I10
tp152
(F130.25274395942688
F182.33520603179932
tp153
s(I50
I10
tp154
(F164.2541389465332
F162.9292721748352
tp155
s(I20
I1000
tp156
(F89.29914617538452
F183.16090202331543
tp157
s(I50
I1000
tp158
(F99.3444287776947
F162.03259706497192
tp159
s(I50
I10000
tp160
(F96.808837890625
F160.72555303573608
tp161
s(I20
I100
tp162
(F90.10332798957825
F183.72149181365967
tp163
s(I20
I10000
tp164
(F91.55904293060303
F193.52230191230774
tp165
sa(dp166
(I10
I1000
tp167
(F164.68295001983643
F126.49766397476196
tp168
s(I10
I100
tp169
(F172.14022397994995
F126.1058349609375
tp170
s(I10
I10
tp171
(F209.6573760509491
F127.57151889801025
tp172
s(I100
I10
tp173
(F122.43707609176636
F184.94412803649902
tp174
s(I10
I10000
tp175
(F161.96869111061096
F137.67084193229675
tp176
s(I100
I1000
tp177
(F62.471436977386475
F147.22999215126038
tp178
s(I100
I100
tp179
(F214.96652507781982
F188.25462198257446
tp180
s(I50
I100
tp181
(F153.6038680076599
F89.4272620677948
tp182
s(I100
I10000
tp183
(F169.5926079750061
F14.819756031036377
tp184
s(I20
I10
tp185
(F205.2116150856018
F114.2268419265747
tp186
s(I50
I10
tp187
(F90.0903811454773
F160.22187685966492
tp188
s(I20
I1000
tp189
(F164.77435398101807
F163.03527808189392
tp190
s(I50
I1000
tp191
(F170.58943700790405
F58.66741991043091
tp192
s(I50
I10000
tp193
(F154.08845496177673
F161.69709587097168
tp194
s(I20
I100
tp195
(F174.89290380477905
F49.84415316581726
tp196
s(I20
I10000
tp197
(F87.02957201004028
F180.00620007514954
tp198
sa(dp199
(I10
I1000
tp200
(F145.79644203186035
F129.10787796974182
tp201
s(I10
I100
tp202
(F41.52578401565552
F194.3110499382019
tp203
s(I10
I10
tp204
(F185.96883702278137
F175.42392492294312
tp205
s(I100
I10
tp206
(F217.96398282051086
F73.77644300460815
tp207
s(I10
I10000
tp208
(F163.68362593650818
F107.36215686798096
tp209
s(I100
I1000
tp210
(F96.588693857193
F142.9463450908661
tp211
s(I100
I100
tp212
(F174.18860602378845
F144.40154910087585
tp213
s(I50
I100
tp214
(F174.6370279788971
F156.29423308372498
tp215
s(I100
I10000
tp216
(F169.3761501312256
F68.77884292602539
tp217
s(I20
I10
tp218
(F213.56820607185364
F144.58777689933777
tp219
s(I50
I10
tp220
(F212.92990684509277
F85.12439203262329
tp221
s(I20
I1000
tp222
(F93.76126098632812
F178.26388502120972
tp223
s(I50
I1000
tp224
(F95.32222390174866
F158.8876440525055
tp225
s(I50
I10000
tp226
(F160.40793085098267
F90.5683491230011
tp227
s(I20
I100
tp228
(F138.32883405685425
F176.89099788665771
tp229
s(I20
I10000
tp230
(F163.60437107086182
F94.34355902671814
tp231
sa(dp232
(I10
I1000
tp233
(F95.53368592262268
F190.82992100715637
tp234
s(I10
I100
tp235
(F159.36746501922607
F193.68546795845032
tp236
s(I10
I10
tp237
(F205.50628304481506
F131.17669701576233
tp238
s(I100
I10
tp239
(F158.50805711746216
F142.43073797225952
tp240
s(I10
I10000
tp241
(F115.30818009376526
F178.40724802017212
tp242
s(I100
I1000
tp243
(F169.7424440383911
F88.6690559387207
tp244
s(I100
I100
tp245
(F131.31387495994568
F130.09300208091736
tp246
s(I50
I100
tp247
(F170.75219202041626
F104.66681289672852
tp248
s(I100
I10000
tp249
(F167.43945693969727
F143.48340487480164
tp250
s(I20
I10
tp251
(F195.63585901260376
F120.41542100906372
tp252
s(I50
I10
tp253
(F146.4529709815979
F157.99608612060547
tp254
s(I20
I1000
tp255
(F167.14185214042664
F176.62242197990417
tp256
s(I50
I1000
tp257
(F168.94139790534973
F108.14055490493774
tp258
s(I50
I10000
tp259
(F160.7115330696106
F163.2116720676422
tp260
s(I20
I100
tp261
(F174.89791798591614
F116.53527903556824
tp262
s(I20
I10000
tp263
(F103.85077786445618
F176.84785103797913
tp264
sa(dp265
(I10
I1000
tp266
(F149.08264803886414
F154.4007670879364
tp267
s(I10
I100
tp268
(F123.6671929359436
F191.81767106056213
tp269
s(I10
I10
tp270
(F150.9109959602356
F193.29337000846863
tp271
s(I100
I10
tp272
(F166.92835402488708
F144.52981090545654
tp273
s(I10
I10000
tp274
(F163.73230004310608
F135.7812910079956
tp275
s(I100
I1000
tp276
(F170.15192198753357
F144.12764382362366
tp277
s(I100
I100
tp278
(F150.389417886734
F60.57848596572876
tp279
s(I50
I100
tp280
(F176.13029599189758
F106.16647601127625
tp281
s(I100
I10000
tp282
(F95.22067999839783
F145.47077298164368
tp283
s(I20
I10
tp284
(F211.43612813949585
F121.2701370716095
tp285
s(I50
I10
tp286
(F162.4539430141449
F159.33422803878784
tp287
s(I20
I1000
tp288
(F124.33131384849548
F179.51050901412964
tp289
s(I50
I1000
tp290
(F166.26099300384521
F142.11474418640137
tp291
s(I50
I10000
tp292
(F136.43564295768738
F158.54887413978577
tp293
s(I20
I100
tp294
(F177.2556140422821
F167.51934003829956
tp295
s(I20
I10000
tp296
(F110.8778760433197
F185.39251899719238
tp297
sa(dp298
(I10
I1000
tp299
(F83.00743508338928
F196.86871099472046
tp300
s(I10
I100
tp301
(F172.96268320083618
F194.1607940196991
tp302
s(I10
I10
tp303
(F208.4210958480835
F83.79233407974243
tp304
s(I100
I10
tp305
(F122.4342291355133
F143.20048809051514
tp306
s(I10
I10000
tp307
(F129.85133004188538
F125.00039482116699
tp308
s(I100
I1000
tp309
(F178.4160439968109
F142.86733508110046
tp310
s(I100
I100
tp311
(F179.3617160320282
F64.53009700775146
tp312
s(I50
I100
tp313
(F91.02308988571167
F159.78492212295532
tp314
s(I100
I10000
tp315
(F77.71232390403748
F143.6222951412201
tp316
s(I20
I10
tp317
(F213.35867595672607
F108.3179759979248
tp318
s(I50
I10
tp319
(F212.0253551006317
F152.62292289733887
tp320
s(I20
I1000
tp321
(F71.71748614311218
F176.91353583335876
tp322
s(I50
I1000
tp323
(F167.80122900009155
F73.93612694740295
tp324
s(I50
I10000
tp325
(F165.85622000694275
F159.73924899101257
tp326
s(I20
I100
tp327
(F171.48792099952698
F189.7830719947815
tp328
s(I20
I10000
tp329
(F164.91616797447205
F93.3767340183258
tp330
sa(dp331
(I10
I1000
tp332
(F121.37706899642944
F194.3635380268097
tp333
s(I10
I100
tp334
(F171.89967894554138
F158.6128339767456
tp335
s(I10
I10
tp336
(F208.27244400978088
F115.53787398338318
tp337
sa(lp338
ag338
ag338
ag338
ag338
ag338
ag338
ag338
ag338
a.